target datalayout = "e-m:e-p270:32:32-p271:32:32-p272:64:64-i64:64-i128:128-f80:128-n8:16:32:64-S128"
target triple = "x86_64-unknown-linux-gnu"

%struct.InputEvent = type { i32, %union.anon.1 }
%union.anon.1 = type { %struct.InputKeyEventWrapper }
%struct.InputKeyEventWrapper = type { ptr }
%struct.InputKeyEvent = type { ptr, i8 }
%struct.KeyValue = type { i32, %union.anon.2 }
%union.anon.2 = type { %struct.IntWrapper }
%struct.IntWrapper = type { i64 }
%struct.QKeyCodeWrapper = type { i32 }
%struct.InputMoveEventWrapper = type { ptr }
%struct.InputMoveEvent = type { i32, i64 }

@.str = private unnamed_addr constant [19 x i8] c"../qemu/ui/input.c\00", align 1
@.str.3 = private unnamed_addr constant [92 x i8] c"!(evt->type == INPUT_EVENT_KIND_KEY && evt->u.key.data->key->type == KEY_VALUE_KIND_NUMBER)\00", align 1
@__PRETTY_FUNCTION__.qemu_input_event_send = private unnamed_addr constant [56 x i8] c"void qemu_input_event_send(QemuConsole *, InputEvent *)\00", align 1

; Function Attrs: nounwind sspstrong uwtable
define dso_local void @qemu_input_event_send(ptr noundef %src, ptr noundef %evt) #0 {
entry:
  %src.addr = alloca ptr, align 8
  %evt.addr = alloca ptr, align 8
  store ptr %src, ptr %src.addr, align 8
  store ptr %evt, ptr %evt.addr, align 8
  %0 = load ptr, ptr %evt.addr, align 8
  %type = getelementptr inbounds %struct.InputEvent, ptr %0, i32 0, i32 0
  %1 = load i32, ptr %type, align 8
  %cmp = icmp eq i32 %1, 0
  br i1 %cmp, label %land.lhs.true, label %if.then

land.lhs.true:                                    ; preds = %entry
  %2 = load ptr, ptr %evt.addr, align 8
  %u = getelementptr inbounds %struct.InputEvent, ptr %2, i32 0, i32 1
  %data = getelementptr inbounds %struct.InputKeyEventWrapper, ptr %u, i32 0, i32 0
  %3 = load ptr, ptr %data, align 8
  %key = getelementptr inbounds %struct.InputKeyEvent, ptr %3, i32 0, i32 0
  %4 = load ptr, ptr %key, align 8
  %type1 = getelementptr inbounds %struct.KeyValue, ptr %4, i32 0, i32 0
  %5 = load i32, ptr %type1, align 8
  %cmp2 = icmp eq i32 %5, 0
  br i1 %cmp2, label %if.else, label %if.then

if.then:                                          ; preds = %land.lhs.true, %entry
  br label %if.end

if.else:                                          ; preds = %land.lhs.true
  call void @__assert_fail(ptr noundef @.str.3, ptr noundef @.str, i32 noundef 362, ptr noundef @__PRETTY_FUNCTION__.qemu_input_event_send) #8
  unreachable

if.end:                                           ; preds = %if.then
  %6 = load ptr, ptr %evt.addr, align 8
  %type3 = getelementptr inbounds %struct.InputEvent, ptr %6, i32 0, i32 0
  %7 = load i32, ptr %type3, align 8
  %cmp4 = icmp eq i32 %7, 0
  br i1 %cmp4, label %land.lhs.true5, label %if.end18

land.lhs.true5:                                   ; preds = %if.end
  %8 = load ptr, ptr %evt.addr, align 8
  %u6 = getelementptr inbounds %struct.InputEvent, ptr %8, i32 0, i32 1
  %data7 = getelementptr inbounds %struct.InputKeyEventWrapper, ptr %u6, i32 0, i32 0
  %9 = load ptr, ptr %data7, align 8
  %key8 = getelementptr inbounds %struct.InputKeyEvent, ptr %9, i32 0, i32 0
  %10 = load ptr, ptr %key8, align 8
  %u9 = getelementptr inbounds %struct.KeyValue, ptr %10, i32 0, i32 1
  %data10 = getelementptr inbounds %struct.QKeyCodeWrapper, ptr %u9, i32 0, i32 0
  %11 = load i32, ptr %data10, align 8
  %cmp11 = icmp eq i32 %11, 80
  br i1 %cmp11, label %if.then12, label %if.end18

if.then12:                                        ; preds = %land.lhs.true5
  %12 = load ptr, ptr %evt.addr, align 8
  %u13 = getelementptr inbounds %struct.InputEvent, ptr %12, i32 0, i32 1
  %data14 = getelementptr inbounds %struct.InputKeyEventWrapper, ptr %u13, i32 0, i32 0
  %13 = load ptr, ptr %data14, align 8
  %key15 = getelementptr inbounds %struct.InputKeyEvent, ptr %13, i32 0, i32 0
  %14 = load ptr, ptr %key15, align 8
  %u16 = getelementptr inbounds %struct.KeyValue, ptr %14, i32 0, i32 1
  %data17 = getelementptr inbounds %struct.QKeyCodeWrapper, ptr %u16, i32 0, i32 0
  store i32 94, ptr %data17, align 8
  br label %if.end18

if.end18:                                         ; preds = %if.then12, %land.lhs.true5, %if.end
  %call = call zeroext i1 @runstate_is_running()
  br i1 %call, label %if.end22, label %land.lhs.true19

land.lhs.true19:                                  ; preds = %if.end18
  %call20 = call zeroext i1 @runstate_check(i32 noundef 12)
  br i1 %call20, label %if.end22, label %if.then21

if.then21:                                        ; preds = %land.lhs.true19
  br label %return

if.end22:                                         ; preds = %land.lhs.true19, %if.end18
  %15 = load ptr, ptr %src.addr, align 8
  %16 = load ptr, ptr %evt.addr, align 8
  call void @replay_input_event(ptr noundef %15, ptr noundef %16)
  br label %return

return:                                           ; preds = %if.end22, %if.then21
  ret void
}

; Function Attrs: nounwind sspstrong uwtable
define dso_local void @qemu_input_queue_rel(ptr noundef %src, i32 noundef %axis, i32 noundef %value) #0 {
entry:
  %src.addr = alloca ptr, align 8
  %axis.addr = alloca i32, align 4
  %value.addr = alloca i32, align 4
  %move = alloca %struct.InputMoveEvent, align 8
  %evt = alloca %struct.InputEvent, align 8
  store ptr %src, ptr %src.addr, align 8
  store i32 %axis, ptr %axis.addr, align 4
  store i32 %value, ptr %value.addr, align 4
  %axis1 = getelementptr inbounds %struct.InputMoveEvent, ptr %move, i32 0, i32 0
  %0 = load i32, ptr %axis.addr, align 4
  store i32 %0, ptr %axis1, align 8
  %value2 = getelementptr inbounds %struct.InputMoveEvent, ptr %move, i32 0, i32 1
  %1 = load i32, ptr %value.addr, align 4
  %conv = sext i32 %1 to i64
  store i64 %conv, ptr %value2, align 8
  %type = getelementptr inbounds %struct.InputEvent, ptr %evt, i32 0, i32 0
  store i32 2, ptr %type, align 8
  %u = getelementptr inbounds %struct.InputEvent, ptr %evt, i32 0, i32 1
  %data = getelementptr inbounds %struct.InputMoveEventWrapper, ptr %u, i32 0, i32 0
  store ptr %move, ptr %data, align 8
  %2 = load ptr, ptr %src.addr, align 8
  call void @qemu_input_event_send(ptr noundef %2, ptr noundef %evt)
  ret void
}