; Function Attrs: nounwind sspstrong uwtable
define dso_local void @qemu_input_queue_rel(ptr noundef %src, i32 noundef %axis, i32 noundef %value) local_unnamed_addr #0 {
if.end18.i:
  %move = alloca %struct.InputMoveEvent, align 8
  %evt = alloca %struct.InputEvent, align 8
  store i32 %axis, ptr %move, align 8
  %value2 = getelementptr inbounds nuw i8, ptr %move, i64 8
  %conv = sext i32 %value to i64
  store i64 %conv, ptr %value2, align 8
  store i32 2, ptr %evt, align 8
  %u = getelementptr inbounds nuw i8, ptr %evt, i64 8
  store ptr %move, ptr %u, align 8
  %call.i = call zeroext i1 @runstate_is_running() #12
  br i1 %call.i, label %if.end22.i, label %land.lhs.true19.i

land.lhs.true19.i:                                ; preds = %if.end18.i
  %call20.i = call zeroext i1 @runstate_check(i32 noundef 12) #12
  br i1 %call20.i, label %if.end22.i, label %qemu_input_event_send.exit

if.end22.i:                                       ; preds = %land.lhs.true19.i, %if.end18.i
  call void @replay_input_event(ptr noundef %src, ptr noundef nonnull %evt) #12
  br label %qemu_input_event_send.exit

qemu_input_event_send.exit:                       ; preds = %land.lhs.true19.i, %if.end22.i
  ret void
}